target datalayout = "e-m:e-p270:32:32-p271:32:32-p272:64:64-i64:64-i128:128-f80:128-n8:16:32:64-S128"
target triple = "x86_64-pc-linux-gnu"

%struct.cli_pcre_data = type { ptr, ptr, i32, ptr, i32 }
%struct.cli_pcre_results = type { i32, [2 x i32], ptr }

@.str.10 = private unnamed_addr constant [2 x i8] c"\0A\00", align 1
@.str.11 = private unnamed_addr constant [42 x i8] c"cli_pcre_report: PCRE2 Execution Report:\0A\00", align 1
@.str.12 = private unnamed_addr constant [48 x i8] c"cli_pcre_report: running regex /%s/ returns %d\0A\00", align 1
@.str.13 = private unnamed_addr constant [53 x i8] c"cli_pcre_report: reported match goes outside buffer\0A\00", align 1
@.str.14 = private unnamed_addr constant [5 x i8] c"%02x\00", align 1
@.str.15 = private unnamed_addr constant [28 x i8] c"cli_pcre_report:  %d: %s%s\0A\00", align 1
@.str.16 = private unnamed_addr constant [9 x i8] c" (trunc)\00", align 1
@.str.17 = private unnamed_addr constant [1 x i8] zeroinitializer, align 1
@.str.18 = private unnamed_addr constant [33 x i8] c"cli_pcre_report: no match found\0A\00", align 1
@.str.19 = private unnamed_addr constant [51 x i8] c"cli_pcre_report: error occurred in pcre_match: %d\0A\00", align 1
@.str.20 = private unnamed_addr constant [44 x i8] c"cli_pcre_report: PCRE Execution Report End\0A\00", align 1
@.str.21 = private unnamed_addr constant [38 x i8] c"cli_pcre_report: no named substrings\0A\00", align 1
@.str.22 = private unnamed_addr constant [35 x i8] c"cli_pcre_report: named substrings\0A\00", align 1
@.str.23 = private unnamed_addr constant [33 x i8] c"cli_pcre_report: (%d) %*s: %s%s\0A\00", align 1

; Function Attrs: nounwind uwtable
define internal void @named_substr_print(ptr noundef %0, ptr noundef %1, ptr noundef %2) #0 {
  %4 = alloca ptr, align 8
  %5 = alloca ptr, align 8
  %6 = alloca ptr, align 8
  %7 = alloca i32, align 4
  %8 = alloca i32, align 4
  %9 = alloca i32, align 4
  %10 = alloca i64, align 8
  %11 = alloca i64, align 8
  %12 = alloca ptr, align 8
  %13 = alloca i32, align 4
  %14 = alloca ptr, align 8
  %15 = alloca ptr, align 8
  %16 = alloca [2057 x i8], align 16
  %17 = alloca i32, align 4
  store ptr %0, ptr %4, align 8
  store ptr %1, ptr %5, align 8
  store ptr %2, ptr %6, align 8
  %18 = load ptr, ptr %4, align 8
  %19 = getelementptr inbounds %struct.cli_pcre_data, ptr %18, i32 0, i32 0
  %20 = load ptr, ptr %19, align 8
  %21 = call i32 @pcre2_pattern_info_8(ptr noundef %20, i32 noundef 17, ptr noundef %8)
  %22 = load i32, ptr %8, align 4
  %23 = icmp sle i32 %22, 0
  br i1 %23, label %24, label %25

24:                                               ; preds = %3
  call void (ptr, ...) @cli_dbgmsg(ptr noundef @.str.21)
  br label %115

25:                                               ; preds = %3
  call void (ptr, ...) @cli_dbgmsg(ptr noundef @.str.22)
  %26 = load ptr, ptr %4, align 8
  %27 = getelementptr inbounds %struct.cli_pcre_data, ptr %26, i32 0, i32 0
  %28 = load ptr, ptr %27, align 8
  %29 = call i32 @pcre2_pattern_info_8(ptr noundef %28, i32 noundef 19, ptr noundef %14)
  %30 = load ptr, ptr %4, align 8
  %31 = getelementptr inbounds %struct.cli_pcre_data, ptr %30, i32 0, i32 0
  %32 = load ptr, ptr %31, align 8
  %33 = call i32 @pcre2_pattern_info_8(ptr noundef %32, i32 noundef 18, ptr noundef %13)
  %34 = load ptr, ptr %14, align 8
  store ptr %34, ptr %12, align 8
  store i32 0, ptr %7, align 4
  br label %35

35:                                               ; preds = %111, %25
  %36 = load i32, ptr %7, align 4
  %37 = load i32, ptr %8, align 4
  %38 = icmp slt i32 %36, %37
  br i1 %38, label %39, label %114

39:                                               ; preds = %35
  %40 = load ptr, ptr %12, align 8
  %41 = getelementptr inbounds i8, ptr %40, i64 0
  %42 = load i8, ptr %41, align 1
  %43 = zext i8 %42 to i32
  %44 = shl i32 %43, 8
  %45 = load ptr, ptr %12, align 8
  %46 = getelementptr inbounds i8, ptr %45, i64 1
  %47 = load i8, ptr %46, align 1
  %48 = zext i8 %47 to i32
  %49 = or i32 %44, %48
  store i32 %49, ptr %17, align 4
  %50 = load ptr, ptr %5, align 8
  %51 = load ptr, ptr %6, align 8
  %52 = load i32, ptr %17, align 4
  %53 = mul nsw i32 2, %52
  %54 = sext i32 %53 to i64
  %55 = getelementptr inbounds i64, ptr %51, i64 %54
  %56 = load i64, ptr %55, align 8
  %57 = getelementptr inbounds i8, ptr %50, i64 %56
  store ptr %57, ptr %15, align 8
  %58 = load ptr, ptr %6, align 8
  %59 = load i32, ptr %17, align 4
  %60 = mul nsw i32 2, %59
  %61 = add nsw i32 %60, 1
  %62 = sext i32 %61 to i64
  %63 = getelementptr inbounds i64, ptr %58, i64 %62
  %64 = load i64, ptr %63, align 8
  %65 = load ptr, ptr %6, align 8
  %66 = load i32, ptr %17, align 4
  %67 = mul nsw i32 2, %66
  %68 = sext i32 %67 to i64
  %69 = getelementptr inbounds i64, ptr %65, i64 %68
  %70 = load i64, ptr %69, align 8
  %71 = sub i64 %64, %70
  store i64 %71, ptr %10, align 8
  store i32 0, ptr %9, align 4
  %72 = load i64, ptr %10, align 8
  %73 = icmp ugt i64 %72, 1028
  br i1 %73, label %74, label %75

74:                                               ; preds = %39
  store i32 1, ptr %9, align 4
  store i64 1028, ptr %10, align 8
  br label %75

75:                                               ; preds = %74, %39
  store i64 0, ptr %11, align 8
  br label %76

76:                                               ; preds = %94, %75
  %77 = load i64, ptr %11, align 8
  %78 = load i64, ptr %10, align 8
  %79 = icmp ult i64 %77, %78
  br i1 %79, label %80, label %97

80:                                               ; preds = %76
  %81 = getelementptr inbounds [2057 x i8], ptr %16, i64 0, i64 0
  %82 = load i64, ptr %11, align 8
  %83 = mul i64 2, %82
  %84 = getelementptr inbounds i8, ptr %81, i64 %83
  %85 = load i64, ptr %11, align 8
  %86 = mul i64 2, %85
  %87 = sub i64 2057, %86
  %88 = load ptr, ptr %15, align 8
  %89 = load i64, ptr %11, align 8
  %90 = getelementptr inbounds i8, ptr %88, i64 %89
  %91 = load i8, ptr %90, align 1
  %92 = sext i8 %91 to i32
  %93 = call i32 (ptr, i64, ptr, ...) @snprintf(ptr noundef %84, i64 noundef %87, ptr noundef @.str.14, i32 noundef %92) #3
  br label %94

94:                                               ; preds = %80
  %95 = load i64, ptr %11, align 8
  %96 = add i64 %95, 1
  store i64 %96, ptr %11, align 8
  br label %76

97:                                               ; preds = %76
  %98 = load i32, ptr %17, align 4
  %99 = load i32, ptr %13, align 4
  %100 = sub nsw i32 %99, 3
  %101 = load ptr, ptr %12, align 8
  %102 = getelementptr inbounds i8, ptr %101, i64 2
  %103 = getelementptr inbounds [2057 x i8], ptr %16, i64 0, i64 0
  %104 = load i32, ptr %9, align 4
  %105 = icmp ne i32 %104, 0
  %106 = select i1 %105, ptr @.str.16, ptr @.str.17
  call void (ptr, ...) @cli_dbgmsg(ptr noundef @.str.23, i32 noundef %98, i32 noundef %100, ptr noundef %102, ptr noundef %103, ptr noundef %106)
  %107 = load i32, ptr %13, align 4
  %108 = load ptr, ptr %12, align 8
  %109 = sext i32 %107 to i64
  %110 = getelementptr inbounds i8, ptr %108, i64 %109
  store ptr %110, ptr %12, align 8
  br label %111

111:                                              ; preds = %97
  %112 = load i32, ptr %7, align 4
  %113 = add nsw i32 %112, 1
  store i32 %113, ptr %7, align 4
  br label %35

114:                                              ; preds = %35
  br label %115

115:                                              ; preds = %114, %24
  ret void
}

; Function Attrs: nounwind uwtable
define void @cli_pcre_report(ptr noundef %0, ptr noundef %1, i64 noundef %2, i32 noundef %3, ptr noundef %4) #0 {
  %6 = alloca ptr, align 8
  %7 = alloca ptr, align 8
  %8 = alloca i64, align 8
  %9 = alloca i32, align 4
  %10 = alloca ptr, align 8
  %11 = alloca i32, align 4
  %12 = alloca i32, align 4
  %13 = alloca i64, align 8
  %14 = alloca i64, align 8
  %15 = alloca ptr, align 8
  %16 = alloca [2057 x i8], align 16
  %17 = alloca ptr, align 8
  store ptr %0, ptr %6, align 8
  store ptr %1, ptr %7, align 8
  store i64 %2, ptr %8, align 8
  store i32 %3, ptr %9, align 4
  store ptr %4, ptr %10, align 8
  %18 = load ptr, ptr %10, align 8
  %19 = getelementptr inbounds %struct.cli_pcre_results, ptr %18, i32 0, i32 2
  %20 = load ptr, ptr %19, align 8
  %21 = call ptr @pcre2_get_ovector_pointer_8(ptr noundef %20)
  store ptr %21, ptr %17, align 8
  call void (ptr, ...) @cli_dbgmsg(ptr noundef @.str.10)
  call void (ptr, ...) @cli_dbgmsg(ptr noundef @.str.11)
  %22 = load ptr, ptr %6, align 8
  %23 = getelementptr inbounds %struct.cli_pcre_data, ptr %22, i32 0, i32 3
  %24 = load ptr, ptr %23, align 8
  %25 = load i32, ptr %9, align 4
  call void (ptr, ...) @cli_dbgmsg(ptr noundef @.str.12, ptr noundef %24, i32 noundef %25)
  %26 = load i32, ptr %9, align 4
  %27 = icmp sgt i32 %26, 0
  br i1 %27, label %28, label %105

28:                                               ; preds = %5
  store i32 0, ptr %11, align 4
  br label %29

29:                                               ; preds = %98, %28
  %30 = load i32, ptr %11, align 4
  %31 = load i32, ptr %9, align 4
  %32 = icmp slt i32 %30, %31
  br i1 %32, label %33, label %101

33:                                               ; preds = %29
  %34 = load ptr, ptr %7, align 8
  %35 = load ptr, ptr %17, align 8
  %36 = load i32, ptr %11, align 4
  %37 = mul nsw i32 2, %36
  %38 = sext i32 %37 to i64
  %39 = getelementptr inbounds i64, ptr %35, i64 %38
  %40 = load i64, ptr %39, align 8
  %41 = getelementptr inbounds i8, ptr %34, i64 %40
  store ptr %41, ptr %15, align 8
  %42 = load ptr, ptr %17, align 8
  %43 = load i32, ptr %11, align 4
  %44 = mul nsw i32 2, %43
  %45 = add nsw i32 %44, 1
  %46 = sext i32 %45 to i64
  %47 = getelementptr inbounds i64, ptr %42, i64 %46
  %48 = load i64, ptr %47, align 8
  %49 = load ptr, ptr %17, align 8
  %50 = load i32, ptr %11, align 4
  %51 = mul nsw i32 2, %50
  %52 = sext i32 %51 to i64
  %53 = getelementptr inbounds i64, ptr %49, i64 %52
  %54 = load i64, ptr %53, align 8
  %55 = sub i64 %48, %54
  store i64 %55, ptr %13, align 8
  %56 = load ptr, ptr %17, align 8
  %57 = load i32, ptr %11, align 4
  %58 = mul nsw i32 2, %57
  %59 = add nsw i32 %58, 1
  %60 = sext i32 %59 to i64
  %61 = getelementptr inbounds i64, ptr %56, i64 %60
  %62 = load i64, ptr %61, align 8
  %63 = load i64, ptr %8, align 8
  %64 = icmp ugt i64 %62, %63
  br i1 %64, label %65, label %66

65:                                               ; preds = %33
  call void (ptr, ...) @cli_warnmsg(ptr noundef @.str.13)
  br label %98

66:                                               ; preds = %33
  store i32 0, ptr %12, align 4
  %67 = load i64, ptr %13, align 8
  %68 = icmp ugt i64 %67, 1028
  br i1 %68, label %69, label %70

69:                                               ; preds = %66
  store i32 1, ptr %12, align 4
  store i64 1028, ptr %13, align 8
  br label %70

70:                                               ; preds = %69, %66
  store i64 0, ptr %14, align 8
  br label %71

71:                                               ; preds = %89, %70
  %72 = load i64, ptr %14, align 8
  %73 = load i64, ptr %13, align 8
  %74 = icmp ult i64 %72, %73
  br i1 %74, label %75, label %92

75:                                               ; preds = %71
  %76 = getelementptr inbounds [2057 x i8], ptr %16, i64 0, i64 0
  %77 = load i64, ptr %14, align 8
  %78 = mul i64 2, %77
  %79 = getelementptr inbounds i8, ptr %76, i64 %78
  %80 = load i64, ptr %14, align 8
  %81 = mul i64 2, %80
  %82 = sub i64 2057, %81
  %83 = load ptr, ptr %15, align 8
  %84 = load i64, ptr %14, align 8
  %85 = getelementptr inbounds i8, ptr %83, i64 %84
  %86 = load i8, ptr %85, align 1
  %87 = sext i8 %86 to i32
  %88 = call i32 (ptr, i64, ptr, ...) @snprintf(ptr noundef %79, i64 noundef %82, ptr noundef @.str.14, i32 noundef %87) #3
  br label %89

89:                                               ; preds = %75
  %90 = load i64, ptr %14, align 8
  %91 = add i64 %90, 1
  store i64 %91, ptr %14, align 8
  br label %71

92:                                               ; preds = %71
  %93 = load i32, ptr %11, align 4
  %94 = getelementptr inbounds [2057 x i8], ptr %16, i64 0, i64 0
  %95 = load i32, ptr %12, align 4
  %96 = icmp ne i32 %95, 0
  %97 = select i1 %96, ptr @.str.16, ptr @.str.17
  call void (ptr, ...) @cli_dbgmsg(ptr noundef @.str.15, i32 noundef %93, ptr noundef %94, ptr noundef %97)
  br label %98

98:                                               ; preds = %92, %65
  %99 = load i32, ptr %11, align 4
  %100 = add nsw i32 %99, 1
  store i32 %100, ptr %11, align 4
  br label %29

101:                                              ; preds = %29
  %102 = load ptr, ptr %6, align 8
  %103 = load ptr, ptr %7, align 8
  %104 = load ptr, ptr %17, align 8
  call void @named_substr_print(ptr noundef %102, ptr noundef %103, ptr noundef %104)
  br label %115

105:                                              ; preds = %5
  %106 = load i32, ptr %9, align 4
  %107 = icmp eq i32 %106, 0
  br i1 %107, label %111, label %108

108:                                              ; preds = %105
  %109 = load i32, ptr %9, align 4
  %110 = icmp eq i32 %109, -1
  br i1 %110, label %111, label %112

111:                                              ; preds = %108, %105
  call void (ptr, ...) @cli_dbgmsg(ptr noundef @.str.18)
  br label %114

112:                                              ; preds = %108
  %113 = load i32, ptr %9, align 4
  call void (ptr, ...) @cli_dbgmsg(ptr noundef @.str.19, i32 noundef %113)
  br label %114

114:                                              ; preds = %112, %111
  br label %115

115:                                              ; preds = %114, %101
  call void (ptr, ...) @cli_dbgmsg(ptr noundef @.str.20)
  call void (ptr, ...) @cli_dbgmsg(ptr noundef @.str.10)
  ret void
}