; Function Attrs: nounwind uwtable
define void @cli_pcre_report(ptr nocapture noundef readonly %0, ptr nocapture noundef readonly %1, i64 noundef %2, i32 noundef %3, ptr nocapture noundef readonly %4) local_unnamed_addr #0 {
  %6 = alloca i32, align 4
  %7 = alloca i32, align 4
  %8 = alloca ptr, align 8
  %9 = alloca [2057 x i8], align 16
  %10 = alloca [2057 x i8], align 16
  %11 = getelementptr inbounds i8, ptr %4, i64 16
  %12 = load ptr, ptr %11, align 8
  %13 = tail call ptr @pcre2_get_ovector_pointer_8(ptr noundef %12) #6
  tail call void (ptr, ...) @cli_dbgmsg(ptr noundef nonnull @.str.10) #6
  tail call void (ptr, ...) @cli_dbgmsg(ptr noundef nonnull @.str.11) #6
  %14 = getelementptr inbounds i8, ptr %0, i64 24
  %15 = load ptr, ptr %14, align 8
  tail call void (ptr, ...) @cli_dbgmsg(ptr noundef nonnull @.str.12, ptr noundef %15, i32 noundef %3) #6
  %16 = icmp sgt i32 %3, 0
  br i1 %16, label %.preheader.preheader, label %90

.preheader.preheader:                             ; preds = %5
  %wide.trip.count = zext nneg i32 %3 to i64
  br label %.preheader

.preheader:                                       ; preds = %.preheader.preheader, %39
  %indvars.iv = phi i64 [ 0, %.preheader.preheader ], [ %indvars.iv.next, %39 ]
  %17 = shl nuw nsw i64 %indvars.iv, 1
  %18 = getelementptr inbounds i64, ptr %13, i64 %17
  %19 = load i64, ptr %18, align 8
  %20 = getelementptr inbounds i8, ptr %1, i64 %19
  %21 = or disjoint i64 %17, 1
  %22 = getelementptr inbounds i64, ptr %13, i64 %21
  %23 = load i64, ptr %22, align 8
  %24 = icmp ugt i64 %23, %2
  br i1 %24, label %25, label %26

25:                                               ; preds = %.preheader
  call void (ptr, ...) @cli_warnmsg(ptr noundef nonnull @.str.13) #6
  br label %39

26:                                               ; preds = %.preheader
  %27 = sub i64 %23, %19
  %28 = icmp ult i64 %27, 1029
  %spec.select = select i1 %28, i64 %27, i64 1028
  %.not = icmp eq i64 %spec.select, 0
  br i1 %.not, label %._crit_edge, label %.lr.ph

.lr.ph:                                           ; preds = %26, %.lr.ph
  %.03438 = phi i64 [ %36, %.lr.ph ], [ 0, %26 ]
  %29 = shl nuw nsw i64 %.03438, 1
  %30 = getelementptr inbounds i8, ptr %10, i64 %29
  %31 = sub nuw nsw i64 2057, %29
  %32 = getelementptr inbounds i8, ptr %20, i64 %.03438
  %33 = load i8, ptr %32, align 1
  %34 = sext i8 %33 to i32
  %35 = call i32 (ptr, i64, ptr, ...) @snprintf(ptr noundef nonnull dereferenceable(1) %30, i64 noundef %31, ptr noundef nonnull @.str.14, i32 noundef %34) #6
  %36 = add nuw i64 %.03438, 1
  %exitcond.not = icmp eq i64 %36, %spec.select
  br i1 %exitcond.not, label %._crit_edge, label %.lr.ph

._crit_edge:                                      ; preds = %.lr.ph, %26
  %37 = select i1 %28, ptr @.str.17, ptr @.str.16
  %38 = trunc nuw nsw i64 %indvars.iv to i32
  call void (ptr, ...) @cli_dbgmsg(ptr noundef nonnull @.str.15, i32 noundef %38, ptr noundef nonnull %10, ptr noundef nonnull %37) #6
  br label %39

39:                                               ; preds = %._crit_edge, %25
  %indvars.iv.next = add nuw nsw i64 %indvars.iv, 1
  %exitcond41.not = icmp eq i64 %indvars.iv.next, %wide.trip.count
  br i1 %exitcond41.not, label %40, label %.preheader

40:                                               ; preds = %39
  call void @llvm.lifetime.start.p0(i64 4, ptr nonnull %6)
  call void @llvm.lifetime.start.p0(i64 4, ptr nonnull %7)
  call void @llvm.lifetime.start.p0(i64 8, ptr nonnull %8)
  call void @llvm.lifetime.start.p0(i64 2057, ptr nonnull %9)
  %41 = load ptr, ptr %0, align 8
  %42 = call i32 @pcre2_pattern_info_8(ptr noundef %41, i32 noundef 17, ptr noundef nonnull %6) #6
  %43 = load i32, ptr %6, align 4
  %44 = icmp slt i32 %43, 1
  br i1 %44, label %45, label %46

45:                                               ; preds = %40
  call void (ptr, ...) @cli_dbgmsg(ptr noundef nonnull @.str.21) #6
  br label %named_substr_print.exit

46:                                               ; preds = %40
  call void (ptr, ...) @cli_dbgmsg(ptr noundef nonnull @.str.22) #6
  %47 = load ptr, ptr %0, align 8
  %48 = call i32 @pcre2_pattern_info_8(ptr noundef %47, i32 noundef 19, ptr noundef nonnull %8) #6
  %49 = load ptr, ptr %0, align 8
  %50 = call i32 @pcre2_pattern_info_8(ptr noundef %49, i32 noundef 18, ptr noundef nonnull %7) #6
  %51 = load i32, ptr %6, align 4
  %52 = icmp sgt i32 %51, 0
  br i1 %52, label %.lr.ph34.preheader.i, label %named_substr_print.exit

.lr.ph34.preheader.i:                             ; preds = %46
  %53 = load ptr, ptr %8, align 8
  br label %.lr.ph34.i

.lr.ph34.i:                                       ; preds = %._crit_edge.i, %.lr.ph34.preheader.i
  %.032.i = phi i32 [ %87, %._crit_edge.i ], [ 0, %.lr.ph34.preheader.i ]
  %.02631.i = phi ptr [ %86, %._crit_edge.i ], [ %53, %.lr.ph34.preheader.i ]
  %54 = load i8, ptr %.02631.i, align 1
  %55 = zext i8 %54 to i32
  %56 = shl nuw nsw i32 %55, 8
  %57 = getelementptr inbounds i8, ptr %.02631.i, i64 1
  %58 = load i8, ptr %57, align 1
  %59 = zext i8 %58 to i32
  %60 = or disjoint i32 %56, %59
  %61 = shl nuw nsw i32 %60, 1
  %62 = zext nneg i32 %61 to i64
  %63 = getelementptr inbounds i64, ptr %13, i64 %62
  %64 = load i64, ptr %63, align 8
  %65 = getelementptr inbounds i8, ptr %1, i64 %64
  %66 = or disjoint i32 %61, 1
  %67 = zext nneg i32 %66 to i64
  %68 = getelementptr inbounds i64, ptr %13, i64 %67
  %69 = load i64, ptr %68, align 8
  %70 = sub i64 %69, %64
  %71 = icmp ult i64 %70, 1029
  %spec.select.i = select i1 %71, i64 %70, i64 1028
  %.not.i = icmp eq i64 %spec.select.i, 0
  br i1 %.not.i, label %._crit_edge.i, label %.lr.ph.i

.lr.ph.i:                                         ; preds = %.lr.ph34.i, %.lr.ph.i
  %.02730.i = phi i64 [ %79, %.lr.ph.i ], [ 0, %.lr.ph34.i ]
  %72 = shl nuw nsw i64 %.02730.i, 1
  %73 = getelementptr inbounds i8, ptr %9, i64 %72
  %74 = sub nuw nsw i64 2057, %72
  %75 = getelementptr inbounds i8, ptr %65, i64 %.02730.i
  %76 = load i8, ptr %75, align 1
  %77 = sext i8 %76 to i32
  %78 = call i32 (ptr, i64, ptr, ...) @snprintf(ptr noundef nonnull dereferenceable(1) %73, i64 noundef %74, ptr noundef nonnull @.str.14, i32 noundef %77) #6
  %79 = add nuw i64 %.02730.i, 1
  %exitcond.not.i = icmp eq i64 %79, %spec.select.i
  br i1 %exitcond.not.i, label %._crit_edge.i, label %.lr.ph.i

._crit_edge.i:                                    ; preds = %.lr.ph.i, %.lr.ph34.i
  %80 = load i32, ptr %7, align 4
  %81 = add nsw i32 %80, -3
  %82 = getelementptr inbounds i8, ptr %.02631.i, i64 2
  %83 = select i1 %71, ptr @.str.17, ptr @.str.16
  call void (ptr, ...) @cli_dbgmsg(ptr noundef nonnull @.str.23, i32 noundef %60, i32 noundef %81, ptr noundef nonnull %82, ptr noundef nonnull %9, ptr noundef nonnull %83) #6
  %84 = load i32, ptr %7, align 4
  %85 = sext i32 %84 to i64
  %86 = getelementptr inbounds i8, ptr %.02631.i, i64 %85
  %87 = add nuw nsw i32 %.032.i, 1
  %88 = load i32, ptr %6, align 4
  %89 = icmp slt i32 %87, %88
  br i1 %89, label %.lr.ph34.i, label %named_substr_print.exit

named_substr_print.exit:                          ; preds = %._crit_edge.i, %45, %46
  call void @llvm.lifetime.end.p0(i64 4, ptr nonnull %6)
  call void @llvm.lifetime.end.p0(i64 4, ptr nonnull %7)
  call void @llvm.lifetime.end.p0(i64 8, ptr nonnull %8)
  call void @llvm.lifetime.end.p0(i64 2057, ptr nonnull %9)
  br label %94

90:                                               ; preds = %5
  %91 = add nsw i32 %3, 1
  %or.cond = icmp ult i32 %91, 2
  br i1 %or.cond, label %92, label %93

92:                                               ; preds = %90
  tail call void (ptr, ...) @cli_dbgmsg(ptr noundef nonnull @.str.18) #6
  br label %94

93:                                               ; preds = %90
  tail call void (ptr, ...) @cli_dbgmsg(ptr noundef nonnull @.str.19, i32 noundef %3) #6
  br label %94

94:                                               ; preds = %92, %93, %named_substr_print.exit
  call void (ptr, ...) @cli_dbgmsg(ptr noundef nonnull @.str.20) #6
  call void (ptr, ...) @cli_dbgmsg(ptr noundef nonnull @.str.10) #6
  ret void
}